target datalayout = "e-m:e-p270:32:32-p271:32:32-p272:64:64-i64:64-i128:128-f80:128-n8:16:32:64-S128"
target triple = "x86_64-pc-linux-gnu"

%struct.CCaptionSubContext = type { ptr, ptr, i32, i32, i32, [2 x %struct.Screen], i32, i8, i8, i8, i8, i8, i8, [2 x %struct.AVBPrint], i32, i32, i32, i32, [2 x i64], i32, i64, [2 x i8], i32 }
%struct.Screen = type { [16 x [33 x i8]], [16 x [33 x i8]], [16 x [33 x i8]], [16 x [33 x i8]], [16 x [33 x i8]], i16 }
%struct.AVBPrint = type { ptr, i32, i32, i32, [1 x i8], [1000 x i8] }

; Function Attrs: nounwind uwtable
define internal i32 @handle_edm(ptr noundef %0) #1 {
  %2 = alloca ptr, align 8
  %3 = alloca ptr, align 8
  %4 = alloca i32, align 4
  store ptr %0, ptr %2, align 8, !tbaa !29
  call void @llvm.lifetime.start.p0(i64 8, ptr %3) #8
  %5 = load ptr, ptr %2, align 8, !tbaa !29
  %6 = getelementptr inbounds nuw %struct.CCaptionSubContext, ptr %5, i32 0, i32 5
  %7 = getelementptr inbounds [2 x %struct.Screen], ptr %6, i64 0, i64 0
  %8 = load ptr, ptr %2, align 8, !tbaa !29
  %9 = getelementptr inbounds nuw %struct.CCaptionSubContext, ptr %8, i32 0, i32 6
  %10 = load i32, ptr %9, align 8, !tbaa !76
  %11 = sext i32 %10 to i64
  %12 = getelementptr inbounds %struct.Screen, ptr %7, i64 %11
  store ptr %12, ptr %3, align 8, !tbaa !78
  call void @llvm.lifetime.start.p0(i64 4, ptr %4) #8
  %13 = load ptr, ptr %2, align 8, !tbaa !29
  %14 = getelementptr inbounds nuw %struct.CCaptionSubContext, ptr %13, i32 0, i32 2
  %15 = load i32, ptr %14, align 8, !tbaa !56
  %16 = icmp ne i32 %15, 0
  br i1 %16, label %20, label %17

17:                                               ; preds = %1
  %18 = load ptr, ptr %2, align 8, !tbaa !29
  %19 = call i32 @capture_screen(ptr noundef %18)
  store i32 %19, ptr %4, align 4, !tbaa !48
  br label %20

20:                                               ; preds = %17, %1
  %21 = load ptr, ptr %3, align 8, !tbaa !78
  %22 = getelementptr inbounds nuw %struct.Screen, ptr %21, i32 0, i32 5
  store i16 0, ptr %22, align 2, !tbaa !70
  %23 = load ptr, ptr %2, align 8, !tbaa !29
  %24 = getelementptr inbounds nuw %struct.CCaptionSubContext, ptr %23, i32 0, i32 10
  store i8 8, ptr %24, align 1, !tbaa !34
  %25 = load ptr, ptr %2, align 8, !tbaa !29
  %26 = getelementptr inbounds nuw %struct.CCaptionSubContext, ptr %25, i32 0, i32 2
  %27 = load i32, ptr %26, align 8, !tbaa !56
  %28 = icmp ne i32 %27, 0
  br i1 %28, label %29, label %32

29:                                               ; preds = %20
  %30 = load ptr, ptr %2, align 8, !tbaa !29
  %31 = call i32 @capture_screen(ptr noundef %30)
  store i32 %31, ptr %4, align 4, !tbaa !48
  br label %32

32:                                               ; preds = %29, %20
  %33 = load i32, ptr %4, align 4, !tbaa !48
  call void @llvm.lifetime.end.p0(i64 4, ptr %4) #8
  call void @llvm.lifetime.end.p0(i64 8, ptr %3) #8
  ret i32 %33
}

; Function Attrs: nounwind uwtable
define internal i32 @handle_eoc(ptr noundef %0) #1 {
  %2 = alloca ptr, align 8
  %3 = alloca i32, align 4
  store ptr %0, ptr %2, align 8, !tbaa !29
  call void @llvm.lifetime.start.p0(i64 4, ptr %3) #8
  %4 = load ptr, ptr %2, align 8, !tbaa !29
  %5 = getelementptr inbounds nuw %struct.CCaptionSubContext, ptr %4, i32 0, i32 6
  %6 = load i32, ptr %5, align 8, !tbaa !76
  %7 = icmp ne i32 %6, 0
  %8 = xor i1 %7, true
  %9 = zext i1 %8 to i32
  %10 = load ptr, ptr %2, align 8, !tbaa !29
  %11 = getelementptr inbounds nuw %struct.CCaptionSubContext, ptr %10, i32 0, i32 6
  store i32 %9, ptr %11, align 8, !tbaa !76
  %12 = load ptr, ptr %2, align 8, !tbaa !29
  %13 = getelementptr inbounds nuw %struct.CCaptionSubContext, ptr %12, i32 0, i32 2
  %14 = load i32, ptr %13, align 8, !tbaa !56
  %15 = icmp ne i32 %14, 0
  br i1 %15, label %19, label %16

16:                                               ; preds = %1
  %17 = load ptr, ptr %2, align 8, !tbaa !29
  %18 = call i32 @handle_edm(ptr noundef %17)
  store i32 %18, ptr %3, align 4, !tbaa !48
  br label %19

19:                                               ; preds = %16, %1
  %20 = load ptr, ptr %2, align 8, !tbaa !29
  %21 = getelementptr inbounds nuw %struct.CCaptionSubContext, ptr %20, i32 0, i32 8
  store i8 0, ptr %21, align 1, !tbaa !72
  %22 = load ptr, ptr %2, align 8, !tbaa !29
  %23 = getelementptr inbounds nuw %struct.CCaptionSubContext, ptr %22, i32 0, i32 2
  %24 = load i32, ptr %23, align 8, !tbaa !56
  %25 = icmp ne i32 %24, 0
  br i1 %25, label %26, label %29

26:                                               ; preds = %19
  %27 = load ptr, ptr %2, align 8, !tbaa !29
  %28 = call i32 @capture_screen(ptr noundef %27)
  store i32 %28, ptr %3, align 4, !tbaa !48
  br label %29

29:                                               ; preds = %26, %19
  %30 = load i32, ptr %3, align 4, !tbaa !48
  call void @llvm.lifetime.end.p0(i64 4, ptr %3) #8
  ret i32 %30
}