; Function Attrs: nounwind uwtable
define internal fastcc range(i32 -12, 1) i32 @handle_eoc(ptr noundef %0) unnamed_addr #1 {
  %2 = getelementptr inbounds nuw i8, ptr %0, i64 5312
  %3 = load i32, ptr %2, align 8, !tbaa !44
  %.not = icmp eq i32 %3, 0
  %4 = zext i1 %.not to i32
  store i32 %4, ptr %2, align 8, !tbaa !44
  %5 = getelementptr inbounds nuw i8, ptr %0, i64 16
  %6 = load i32, ptr %5, align 8, !tbaa !53
  %.not7 = icmp eq i32 %6, 0
  br i1 %.not7, label %8, label %handle_edm.exit.thread

handle_edm.exit.thread:                           ; preds = %1
  %7 = getelementptr inbounds nuw i8, ptr %0, i64 5317
  store i8 0, ptr %7, align 1, !tbaa !48
  br label %18

8:                                                ; preds = %1
  %9 = tail call fastcc i32 @capture_screen(ptr noundef nonnull %0)
  %.pre.i = load i32, ptr %5, align 8, !tbaa !53
  %10 = icmp eq i32 %.pre.i, 0
  %.idx.i = select i1 %.not, i64 2642, i64 0
  %11 = getelementptr i8, ptr %0, i64 2668
  %12 = getelementptr i8, ptr %11, i64 %.idx.i
  store i16 0, ptr %12, align 2, !tbaa !51
  %13 = getelementptr inbounds nuw i8, ptr %0, i64 5319
  store i8 8, ptr %13, align 1, !tbaa !30
  br i1 %10, label %handle_edm.exit.thread12, label %handle_edm.exit

handle_edm.exit.thread12:                         ; preds = %8
  %14 = getelementptr inbounds nuw i8, ptr %0, i64 5317
  store i8 0, ptr %14, align 1, !tbaa !48
  br label %20

handle_edm.exit:                                  ; preds = %8
  %15 = tail call fastcc i32 @capture_screen(ptr noundef nonnull %0)
  %.pr.pre = load i32, ptr %5, align 8, !tbaa !53
  %16 = icmp eq i32 %.pr.pre, 0
  %17 = getelementptr inbounds nuw i8, ptr %0, i64 5317
  store i8 0, ptr %17, align 1, !tbaa !48
  br i1 %16, label %20, label %18

18:                                               ; preds = %handle_edm.exit.thread, %handle_edm.exit
  %19 = tail call fastcc i32 @capture_screen(ptr noundef nonnull %0)
  br label %20

20:                                               ; preds = %handle_edm.exit.thread12, %18, %handle_edm.exit
  %.1 = phi i32 [ %19, %18 ], [ %15, %handle_edm.exit ], [ %9, %handle_edm.exit.thread12 ]
  ret i32 %.1
}